target datalayout = "e-m:e-p270:32:32-p271:32:32-p272:64:64-i64:64-i128:128-f80:128-n8:16:32:64-S128"
target triple = "x86_64-pc-linux-gnu"

; Function Attrs: mustprogress nounwind uwtable
define hidden noundef ptr @_ZN12Dependencies15check_leaf_typeEP13InstanceKlass(ptr noundef %0) #1 align 2 {
  %2 = alloca ptr, align 8
  %3 = alloca ptr, align 8
  %4 = alloca ptr, align 8
  %5 = alloca ptr, align 8
  store ptr %0, ptr %3, align 8
  %6 = load ptr, ptr %3, align 8
  %7 = call noundef ptr @_ZNK5Klass8subklassEb(ptr noundef nonnull align 8 dereferenceable(196) %6, i1 noundef zeroext false)
  store ptr %7, ptr %4, align 8
  %8 = load ptr, ptr %4, align 8
  %9 = icmp ne ptr %8, null
  br i1 %9, label %10, label %12

10:                                               ; preds = %1
  %11 = load ptr, ptr %4, align 8
  store ptr %11, ptr %2, align 8
  br label %21

12:                                               ; preds = %1
  %13 = load ptr, ptr %3, align 8
  %14 = call noundef i32 @_ZNK13InstanceKlass16nof_implementorsEv(ptr noundef nonnull align 8 dereferenceable(464) %13)
  %15 = icmp ne i32 %14, 0
  br i1 %15, label %16, label %20

16:                                               ; preds = %12
  %17 = load ptr, ptr %3, align 8
  %18 = call noundef ptr @_ZNK13InstanceKlass11implementorEv(ptr noundef nonnull align 8 dereferenceable(464) %17)
  store ptr %18, ptr %5, align 8
  %19 = load ptr, ptr %5, align 8
  store ptr %19, ptr %2, align 8
  br label %21

20:                                               ; preds = %12
  store ptr null, ptr %2, align 8
  br label %21

21:                                               ; preds = %20, %16, %10
  %22 = load ptr, ptr %2, align 8
  ret ptr %22
}