; Function Attrs: mustprogress nounwind uwtable
define hidden noundef ptr @_ZN12Dependencies15check_leaf_typeEP13InstanceKlass(ptr noundef nonnull %0) local_unnamed_addr #0 align 2 {
  %2 = tail call noundef ptr @_ZNK5Klass8subklassEb(ptr noundef nonnull align 8 dereferenceable(196) %0, i1 noundef zeroext false) #18
  %.not = icmp eq ptr %2, null
  br i1 %.not, label %3, label %7

3:                                                ; preds = %1
  %4 = tail call noundef i32 @_ZNK13InstanceKlass16nof_implementorsEv(ptr noundef nonnull align 8 dereferenceable(464) %0) #18
  %.not8 = icmp eq i32 %4, 0
  br i1 %.not8, label %7, label %5

5:                                                ; preds = %3
  %6 = tail call noundef ptr @_ZNK13InstanceKlass11implementorEv(ptr noundef nonnull align 8 dereferenceable(464) %0) #18
  br label %7

7:                                                ; preds = %3, %1, %5
  %.0 = phi ptr [ %6, %5 ], [ %2, %1 ], [ null, %3 ]
  ret ptr %.0
}